target datalayout = "e-m:e-p270:32:32-p271:32:32-p272:64:64-i64:64-i128:128-f80:128-n8:16:32:64-S128"
target triple = "x86_64-pc-linux-gnu"

%struct.zrange_result_handler = type { i32, ptr, ptr, ptr, ptr, i32, i32, ptr, ptr, ptr, ptr }

; Function Attrs: nounwind uwtable
define internal void @zrangeResultEmitCBufferToClient(ptr noundef %0, ptr noundef %1, i64 noundef %2, double noundef %3) #0 {
  %5 = alloca ptr, align 8
  %6 = alloca ptr, align 8
  %7 = alloca i64, align 8
  %8 = alloca double, align 8
  store ptr %0, ptr %5, align 8, !tbaa !208
  store ptr %1, ptr %6, align 8, !tbaa !45
  store i64 %2, ptr %7, align 8, !tbaa !31
  store double %3, ptr %8, align 8, !tbaa !9
  %9 = load ptr, ptr %5, align 8, !tbaa !208
  %10 = getelementptr inbounds nuw %struct.zrange_result_handler, ptr %9, i32 0, i32 6
  %11 = load i32, ptr %10, align 4, !tbaa !230
  %12 = icmp ne i32 %11, 0
  br i1 %12, label %13, label %17

13:                                               ; preds = %4
  %14 = load ptr, ptr %5, align 8, !tbaa !208
  %15 = getelementptr inbounds nuw %struct.zrange_result_handler, ptr %14, i32 0, i32 1
  %16 = load ptr, ptr %15, align 8, !tbaa !210
  call void @addReplyArrayLen(ptr noundef %16, i64 noundef 2)
  br label %17

17:                                               ; preds = %13, %4
  %18 = load ptr, ptr %5, align 8, !tbaa !208
  %19 = getelementptr inbounds nuw %struct.zrange_result_handler, ptr %18, i32 0, i32 1
  %20 = load ptr, ptr %19, align 8, !tbaa !210
  %21 = load ptr, ptr %6, align 8, !tbaa !45
  %22 = load i64, ptr %7, align 8, !tbaa !31
  call void @addReplyBulkCBuffer(ptr noundef %20, ptr noundef %21, i64 noundef %22)
  %23 = load ptr, ptr %5, align 8, !tbaa !208
  %24 = getelementptr inbounds nuw %struct.zrange_result_handler, ptr %23, i32 0, i32 5
  %25 = load i32, ptr %24, align 8, !tbaa !229
  %26 = icmp ne i32 %25, 0
  br i1 %26, label %27, label %32

27:                                               ; preds = %17
  %28 = load ptr, ptr %5, align 8, !tbaa !208
  %29 = getelementptr inbounds nuw %struct.zrange_result_handler, ptr %28, i32 0, i32 1
  %30 = load ptr, ptr %29, align 8, !tbaa !210
  %31 = load double, ptr %8, align 8, !tbaa !9
  call void @addReplyDouble(ptr noundef %30, double noundef %31)
  br label %32

32:                                               ; preds = %27, %17
  ret void
}