; Function Attrs: nounwind uwtable
define internal void @zrangeResultEmitCBufferToClient(ptr noundef readonly captures(none) %0, ptr noundef %1, i64 noundef %2, double noundef %3) #0 {
  %5 = getelementptr inbounds nuw i8, ptr %0, i64 44
  %6 = load i32, ptr %5, align 4, !tbaa !205
  %.not = icmp eq i32 %6, 0
  br i1 %.not, label %10, label %7

7:                                                ; preds = %4
  %8 = getelementptr inbounds nuw i8, ptr %0, i64 8
  %9 = load ptr, ptr %8, align 8, !tbaa !194
  tail call void @addReplyArrayLen(ptr noundef %9, i64 noundef 2) #18
  br label %10

10:                                               ; preds = %7, %4
  %11 = getelementptr inbounds nuw i8, ptr %0, i64 8
  %12 = load ptr, ptr %11, align 8, !tbaa !194
  tail call void @addReplyBulkCBuffer(ptr noundef %12, ptr noundef %1, i64 noundef %2) #18
  %13 = getelementptr inbounds nuw i8, ptr %0, i64 40
  %14 = load i32, ptr %13, align 8, !tbaa !204
  %.not7 = icmp eq i32 %14, 0
  br i1 %.not7, label %17, label %15

15:                                               ; preds = %10
  %16 = load ptr, ptr %11, align 8, !tbaa !194
  tail call void @addReplyDouble(ptr noundef %16, double noundef %3) #18
  br label %17

17:                                               ; preds = %15, %10
  ret void
}